target datalayout = "e-m:e-p270:32:32-p271:32:32-p272:64:64-i64:64-i128:128-f80:128-n8:16:32:64-S128"
target triple = "x86_64-pc-linux-gnu"

%class.params_ref = type { ptr }

; Function Attrs: mustprogress nounwind uwtable
define linkonce_odr hidden void @_ZN10params_refC2Ev(ptr noundef nonnull align 8 dereferenceable(8) %0) unnamed_addr #7 comdat align 2 {
  %2 = alloca ptr, align 8
  store ptr %0, ptr %2, align 8, !tbaa !8
  %3 = load ptr, ptr %2, align 8
  %4 = getelementptr inbounds nuw %class.params_ref, ptr %3, i32 0, i32 0
  store ptr null, ptr %4, align 8, !tbaa !12
  ret void
}

; Function Attrs: inlinehint mustprogress uwtable
define internal noundef ptr @"_ZZ17mk_default_tacticR11ast_managerRK10params_refENK3$_4clIS_S1_EEDaRT_RKT0_"(ptr noundef nonnull align 1 dereferenceable(1) %0, ptr noundef nonnull align 8 dereferenceable(976) %1, ptr noundef nonnull align 8 dereferenceable(8) %2) #9 align 2 personality ptr @__gxx_personality_v0 {
  %4 = alloca ptr, align 8
  %5 = alloca ptr, align 8
  %6 = alloca ptr, align 8
  %7 = alloca %class.params_ref, align 8
  %8 = alloca ptr, align 8
  %9 = alloca i32, align 4
  store ptr %0, ptr %4, align 8, !tbaa !17
  store ptr %1, ptr %5, align 8, !tbaa !3
  store ptr %2, ptr %6, align 8, !tbaa !8
  %10 = load ptr, ptr %5, align 8, !tbaa !3
  call void @llvm.lifetime.start.p0(i64 8, ptr %7) #3
  call void @llvm.memset.p0.i64(ptr align 8 %7, i8 0, i64 8, i1 false)
  call void @_ZN10params_refC2Ev(ptr noundef nonnull align 8 dereferenceable(8) %7) #3
  %11 = invoke noundef ptr @_Z18mk_qfauflia_tacticR11ast_managerRK10params_ref(ptr noundef nonnull align 8 dereferenceable(976) %10, ptr noundef nonnull align 8 dereferenceable(8) %7)
          to label %12 unwind label %13

12:                                               ; preds = %3
  call void @_ZN10params_refD1Ev(ptr noundef nonnull align 8 dereferenceable(8) %7) #3
  call void @llvm.lifetime.end.p0(i64 8, ptr %7) #3
  ret ptr %11

13:                                               ; preds = %3
  %14 = landingpad { ptr, i32 }
          cleanup
  %15 = extractvalue { ptr, i32 } %14, 0
  store ptr %15, ptr %8, align 8
  %16 = extractvalue { ptr, i32 } %14, 1
  store i32 %16, ptr %9, align 4
  call void @_ZN10params_refD1Ev(ptr noundef nonnull align 8 dereferenceable(8) %7) #3
  call void @llvm.lifetime.end.p0(i64 8, ptr %7) #3
  br label %17

17:                                               ; preds = %13
  %18 = load ptr, ptr %8, align 8
  %19 = load i32, ptr %9, align 4
  %20 = insertvalue { ptr, i32 } poison, ptr %18, 0
  %21 = insertvalue { ptr, i32 } %20, i32 %19, 1
  resume { ptr, i32 } %21
}

; Function Attrs: mustprogress nounwind uwtable
define linkonce_odr hidden noundef ptr @_ZNKSt9_Any_data9_M_accessEv(ptr noundef nonnull align 8 dereferenceable(16) %0) #7 comdat align 2 {
  %2 = alloca ptr, align 8
  store ptr %0, ptr %2, align 8, !tbaa !25
  %3 = load ptr, ptr %2, align 8
  %4 = getelementptr inbounds [16 x i8], ptr %3, i64 0, i64 0
  ret ptr %4
}

; Function Attrs: mustprogress uwtable
define internal noundef ptr @"_ZSt13__invoke_implIP6tacticRZ17mk_default_tacticR11ast_managerRK10params_refE3$_4JS3_S6_EET_St14__invoke_otherOT0_DpOT1_"(ptr noundef nonnull align 1 dereferenceable(1) %0, ptr noundef nonnull align 8 dereferenceable(976) %1, ptr noundef nonnull align 8 dereferenceable(8) %2) #4 {
  %4 = alloca ptr, align 8
  %5 = alloca ptr, align 8
  %6 = alloca ptr, align 8
  store ptr %0, ptr %4, align 8, !tbaa !17
  store ptr %1, ptr %5, align 8, !tbaa !3
  store ptr %2, ptr %6, align 8, !tbaa !8
  %7 = load ptr, ptr %4, align 8, !tbaa !17
  %8 = load ptr, ptr %5, align 8, !tbaa !3
  %9 = load ptr, ptr %6, align 8, !tbaa !8
  %10 = call noundef ptr @"_ZZ17mk_default_tacticR11ast_managerRK10params_refENK3$_4clIS_S1_EEDaRT_RKT0_"(ptr noundef nonnull align 1 dereferenceable(1) %7, ptr noundef nonnull align 8 dereferenceable(976) %8, ptr noundef nonnull align 8 dereferenceable(8) %9)
  ret ptr %10
}

; Function Attrs: mustprogress nounwind uwtable
define internal noundef nonnull align 1 dereferenceable(1) ptr @"_ZNKSt9_Any_data9_M_accessIZ17mk_default_tacticR11ast_managerRK10params_refE3$_4EERKT_v"(ptr noundef nonnull align 8 dereferenceable(16) %0) #7 align 2 {
  %2 = alloca ptr, align 8
  store ptr %0, ptr %2, align 8, !tbaa !25
  %3 = load ptr, ptr %2, align 8
  %4 = call noundef ptr @_ZNKSt9_Any_data9_M_accessEv(ptr noundef nonnull align 8 dereferenceable(16) %3) #3
  ret ptr %4
}

; Function Attrs: mustprogress uwtable
define internal noundef ptr @"_ZSt10__invoke_rIP6tacticRZ17mk_default_tacticR11ast_managerRK10params_refE3$_4JS3_S6_EENSt9enable_ifIX16is_invocable_r_vIT_T0_DpT1_EESA_E4typeEOSB_DpOSC_"(ptr noundef nonnull align 1 dereferenceable(1) %0, ptr noundef nonnull align 8 dereferenceable(976) %1, ptr noundef nonnull align 8 dereferenceable(8) %2) #4 {
  %4 = alloca ptr, align 8
  %5 = alloca ptr, align 8
  %6 = alloca ptr, align 8
  store ptr %0, ptr %4, align 8, !tbaa !17
  store ptr %1, ptr %5, align 8, !tbaa !3
  store ptr %2, ptr %6, align 8, !tbaa !8
  %7 = load ptr, ptr %4, align 8, !tbaa !17
  %8 = load ptr, ptr %5, align 8, !tbaa !3
  %9 = load ptr, ptr %6, align 8, !tbaa !8
  %10 = call noundef ptr @"_ZSt13__invoke_implIP6tacticRZ17mk_default_tacticR11ast_managerRK10params_refE3$_4JS3_S6_EET_St14__invoke_otherOT0_DpOT1_"(ptr noundef nonnull align 1 dereferenceable(1) %7, ptr noundef nonnull align 8 dereferenceable(976) %8, ptr noundef nonnull align 8 dereferenceable(8) %9)
  ret ptr %10
}

; Function Attrs: mustprogress nounwind uwtable
define internal noundef ptr @"_ZNSt14_Function_base13_Base_managerIZ17mk_default_tacticR11ast_managerRK10params_refE3$_4E14_M_get_pointerERKSt9_Any_data"(ptr noundef nonnull align 8 dereferenceable(16) %0) #7 align 2 {
  %2 = alloca ptr, align 8
  %3 = alloca ptr, align 8
  store ptr %0, ptr %2, align 8, !tbaa !25
  call void @llvm.lifetime.start.p0(i64 8, ptr %3) #3
  %4 = load ptr, ptr %2, align 8, !tbaa !25
  %5 = call noundef nonnull align 1 dereferenceable(1) ptr @"_ZNKSt9_Any_data9_M_accessIZ17mk_default_tacticR11ast_managerRK10params_refE3$_4EERKT_v"(ptr noundef nonnull align 8 dereferenceable(16) %4) #3
  store ptr %5, ptr %3, align 8, !tbaa !17
  %6 = load ptr, ptr %3, align 8, !tbaa !17
  call void @llvm.lifetime.end.p0(i64 8, ptr %3) #3
  ret ptr %6
}

; Function Attrs: mustprogress uwtable
define internal noundef ptr @"_ZNSt17_Function_handlerIFP6tacticR11ast_managerRK10params_refEZ17mk_default_tacticS3_S6_E3$_4E9_M_invokeERKSt9_Any_dataS3_S6_"(ptr noundef nonnull align 8 dereferenceable(16) %0, ptr noundef nonnull align 8 dereferenceable(976) %1, ptr noundef nonnull align 8 dereferenceable(8) %2) #4 align 2 {
  %4 = alloca ptr, align 8
  %5 = alloca ptr, align 8
  %6 = alloca ptr, align 8
  store ptr %0, ptr %4, align 8, !tbaa !25
  store ptr %1, ptr %5, align 8, !tbaa !3
  store ptr %2, ptr %6, align 8, !tbaa !8
  %7 = load ptr, ptr %4, align 8, !tbaa !25
  %8 = call noundef ptr @"_ZNSt14_Function_base13_Base_managerIZ17mk_default_tacticR11ast_managerRK10params_refE3$_4E14_M_get_pointerERKSt9_Any_data"(ptr noundef nonnull align 8 dereferenceable(16) %7) #3
  %9 = load ptr, ptr %5, align 8, !tbaa !3
  %10 = load ptr, ptr %6, align 8, !tbaa !8
  %11 = call noundef ptr @"_ZSt10__invoke_rIP6tacticRZ17mk_default_tacticR11ast_managerRK10params_refE3$_4JS3_S6_EENSt9enable_ifIX16is_invocable_r_vIT_T0_DpT1_EESA_E4typeEOSB_DpOSC_"(ptr noundef nonnull align 1 dereferenceable(1) %8, ptr noundef nonnull align 8 dereferenceable(976) %9, ptr noundef nonnull align 8 dereferenceable(8) %10)
  ret ptr %11
}